ccopy_reg
_reconstructor
p1
(cdebian_linux.config
ConfigCore
p2
c__builtin__
dict
p3
(dp4
(S'image'
p5
S'amd64'
p6
tp7
(dp8
S'suggests'
p9
S'crda'
p10
sS'configs'
p11
(lp12
S'kernelarch-x86/config'
p13
asS'bootloaders'
p14
(lp15
S'grub-pc'
p16
aS'extlinux'
p17
aS'grub-efi-amd64'
p18
ass(S'base'
p19
g6
S'none'
p20
tp21
(dp22
S'implicit-flavour'
p23
I01
sS'flavours'
p24
(lp25
S'desktop-amd64'
p26
ass(S'base'
p27
g6
tp28
(dp29
S'kernel-arch'
p30
S'x86'
p31
sS'featuresets'
p32
(lp33
g20
ass(S'image'
p34
tp35
(dp36
S'initramfs-generators'
p37
(lp38
S'initramfs-tools'
p39
aS'initramfs-fallback'
p40
asS'type'
p41
S'plain'
p42
ss(S'description'
g6
NS'desktop-amd64'
tp43
(dp44
S'hardware'
p45
S'64-bit PCs'
p46
sS'hardware-long'
p47
S'PCs with AMD64 or Intel 64 processors'
p48
ss(S'description'
S'i386'
p49
NS'desktop-686'
tp50
(dp51
S'hardware'
p52
S'modern PCs'
p53
sS'hardware-long'
p54
S'PCs with Intel Pentium Pro/II/III/4/4M/D/M, Xeon, Celeron, Core or Atom; AMD Geode LX/NX, Athlon (K7), Duron, Opteron, Sempron, Turion or Phenom; Transmeta Efficeon; VIA C3 "Nehemiah" or C7 processors'
p55
ss(S'version'
p56
tp57
(dp58
S'abiname'
p59
S'4.1-34.semplice.1'
p60
sS'source'
p61
V4.1.34-1~jethro0
p62
ss(S'image'
g6
NS'desktop-amd64'
tp63
(dp64
S'configs'
p65
(lp66
S'kernelarch-x86/config-arch-64'
p67
ass(S'base'
g49
tp68
(dp69
S'kernel-arch'
p70
S'x86'
p71
sg32
(lp72
g20
ass(S'build'
g6
NS'desktop-amd64'
tp73
(dp74
S'debug-info'
p75
I00
ss(S'build'
g49
NS'desktop-686'
tp76
(dp77
S'debug-info'
p78
I00
ss(S'abi'
p79
tp80
(dp81
S'abiname'
p82
S'34.semplice.1'
p83
ss(S'image'
g49
tp84
(dp85
S'suggests'
p86
S'crda'
p87
sS'configs'
p88
(lp89
S'kernelarch-x86/config'
p90
asS'bootloaders'
p91
(lp92
S'grub-pc'
p93
aS'extlinux'
p94
ass(g19
g49
g20
tp95
(dp96
g23
I01
sg24
(lp97
S'desktop-686'
p98
ass(S'image'
g49
NS'desktop-686'
tp99
(dp100
S'configs'
p101
(lp102
S'kernelarch-x86/config-arch-32'
p103
asS'recommends'
p104
S'libc6-i686'
p105
ss(S'base'
p106
tp107
(dp108
S'arches'
p109
(lp110
S'amd64'
p111
aS'i386'
p112
asS'featuresets'
p113
(lp114
S'none'
p115
asS'compiler'
p116
S'gcc-4.9'
p117
ss(S'relations'
p118
tp119
(dp120
S'gcc-4.9'
p121
S'gcc-4.9'
p122
sS'initramfs-fallback'
p123
S'linux-initramfs-tool'
p124
sS'lilo'
p125
S'lilo (>= 22.8-8.2~)'
p126
sS'elilo'
p127
S'elilo (>= 3.12-3.1~)'
p128
sS'gcc-5'
p129
S'gcc-5'
p130
sS'initramfs-tools'
p131
S'initramfs-tools (>= 0.110~)'
p132
sstRp133
.