ccopy_reg
_reconstructor
p1
(cdebian_linux.config
ConfigCore
p2
c__builtin__
dict
p3
(dp4
(S'image'
p5
S'amd64'
p6
tp7
(dp8
S'suggests'
p9
S'crda'
p10
sS'configs'
p11
(lp12
S'kernelarch-x86/config'
p13
asS'bootloaders'
p14
(lp15
S'grub-pc'
p16
aS'extlinux'
p17
aS'grub-efi-amd64'
p18
ass(S'base'
p19
g6
S'none'
p20
tp21
(dp22
S'implicit-flavour'
p23
I01
sS'flavours'
p24
(lp25
S'desktop-amd64'
p26
ass(S'description'
S'i386'
p27
NS'desktop-686'
tp28
(dp29
S'hardware'
p30
S'modern PCs'
p31
sS'hardware-long'
p32
S'PCs with Intel Pentium Pro/II/III/4/4M/D/M, Xeon, Celeron, Core or Atom; AMD Geode LX/NX, Athlon (K7), Duron, Opteron, Sempron, Turion or Phenom; Transmeta Efficeon; VIA C3 "Nehemiah" or C7 processors'
p33
ss(S'build'
g6
NS'desktop-amd64'
tp34
(dp35
S'debug-info'
p36
I00
ss(S'base'
p37
g6
tp38
(dp39
S'kernel-arch'
p40
S'x86'
p41
sS'featuresets'
p42
(lp43
g20
ass(S'image'
p44
tp45
(dp46
S'initramfs-generators'
p47
(lp48
S'initramfs-tools'
p49
aS'initramfs-fallback'
p50
asS'type'
p51
S'plain'
p52
ss(S'image'
g27
NS'desktop-686'
tp53
(dp54
S'configs'
p55
(lp56
S'kernelarch-x86/config-arch-32'
p57
asS'recommends'
p58
S'libc6-i686'
p59
ss(S'version'
p60
tp61
(dp62
S'abiname'
p63
S'3.14-6.semplice.0'
p64
sS'source'
p65
V3.14.6-2
p66
ss(S'description'
g6
NS'desktop-amd64'
tp67
(dp68
S'hardware'
p69
S'64-bit PCs'
p70
sS'hardware-long'
p71
S'PCs with AMD64 or Intel 64 processors'
p72
ss(S'image'
g6
NS'desktop-amd64'
tp73
(dp74
S'configs'
p75
(lp76
S'kernelarch-x86/config-arch-64'
p77
ass(S'base'
g27
tp78
(dp79
S'kernel-arch'
p80
S'x86'
p81
sg42
(lp82
g20
ass(S'base'
p83
tp84
(dp85
S'arches'
p86
(lp87
S'amd64'
p88
aS'i386'
p89
asS'featuresets'
p90
(lp91
S'none'
p92
asS'compiler'
p93
S'gcc-4.9'
p94
ss(S'abi'
p95
tp96
(dp97
S'abiname'
p98
S'6.semplice.0'
p99
ss(S'image'
g27
tp100
(dp101
S'suggests'
p102
S'crda'
p103
sS'configs'
p104
(lp105
S'kernelarch-x86/config'
p106
asS'bootloaders'
p107
(lp108
S'grub-pc'
p109
aS'extlinux'
p110
ass(g19
g27
g20
tp111
(dp112
g23
I01
sg24
(lp113
S'desktop-686'
p114
ass(S'build'
g27
NS'desktop-686'
tp115
(dp116
S'debug-info'
p117
I00
ss(S'relations'
p118
tp119
(dp120
S'initramfs-fallback'
p121
S'linux-initramfs-tool'
p122
sS'gcc-4.9'
p123
S'gcc-4.9'
p124
sS'initramfs-tools'
p125
S'initramfs-tools (>= 0.110~)'
p126
sS'elilo'
p127
S'elilo (>= 3.12-3.1~)'
p128
sS'lilo'
p129
S'lilo (>= 22.8-8.2~)'
p130
sstRp131
.