ccopy_reg
_reconstructor
p1
(cdebian_linux.config
ConfigCore
p2
c__builtin__
dict
p3
(dp4
(S'image'
p5
S'amd64'
p6
tp7
(dp8
S'suggests'
p9
S'crda'
p10
sS'configs'
p11
(lp12
S'kernelarch-x86/config'
p13
asS'bootloaders'
p14
(lp15
S'grub-pc'
p16
aS'extlinux'
p17
aS'grub-efi-amd64'
p18
ass(S'build'
g6
NS'desktop-amd64'
tp19
(dp20
S'debug-info'
p21
I00
ss(S'image'
g6
NS'desktop-amd64'
tp22
(dp23
S'configs'
p24
(lp25
S'kernelarch-x86/config-arch-64'
p26
ass(S'base'
p27
g6
S'none'
p28
tp29
(dp30
S'implicit-flavour'
p31
I01
sS'flavours'
p32
(lp33
S'desktop-amd64'
p34
ass(S'build'
S'i386'
p35
NS'desktop-686'
tp36
(dp37
S'debug-info'
p38
I00
ss(S'base'
p39
g6
tp40
(dp41
S'kernel-arch'
p42
S'x86'
p43
sS'featuresets'
p44
(lp45
g28
ass(S'image'
p46
tp47
(dp48
S'initramfs-generators'
p49
(lp50
S'initramfs-tools'
p51
aS'initramfs-fallback'
p52
asS'type'
p53
S'plain'
p54
ss(S'description'
g6
NS'desktop-amd64'
tp55
(dp56
S'hardware'
p57
S'64-bit PCs'
p58
sS'hardware-long'
p59
S'PCs with AMD64 or Intel 64 processors'
p60
ss(S'description'
g35
NS'desktop-686'
tp61
(dp62
S'hardware'
p63
S'modern PCs'
p64
sS'hardware-long'
p65
S'PCs with Intel Pentium Pro/II/III/4/4M/D/M, Xeon, Celeron, Core or Atom; AMD Geode LX/NX, Athlon (K7), Duron, Opteron, Sempron, Turion or Phenom; Transmeta Efficeon; VIA C3 "Nehemiah" or C7 processors'
p66
ss(S'version'
p67
tp68
(dp69
S'abiname'
p70
S'4.1-16.semplice.0'
p71
sS'source'
p72
V4.1.16-1~jethro0
p73
ss(S'base'
g35
tp74
(dp75
S'kernel-arch'
p76
S'x86'
p77
sg44
(lp78
g28
ass(S'abi'
p79
tp80
(dp81
S'abiname'
p82
S'16.semplice.0'
p83
ss(S'image'
g35
tp84
(dp85
S'suggests'
p86
S'crda'
p87
sS'configs'
p88
(lp89
S'kernelarch-x86/config'
p90
asS'bootloaders'
p91
(lp92
S'grub-pc'
p93
aS'extlinux'
p94
ass(g27
g35
g28
tp95
(dp96
g31
I01
sg32
(lp97
S'desktop-686'
p98
ass(S'image'
g35
NS'desktop-686'
tp99
(dp100
S'configs'
p101
(lp102
S'kernelarch-x86/config-arch-32'
p103
asS'recommends'
p104
S'libc6-i686'
p105
ss(S'base'
p106
tp107
(dp108
S'arches'
p109
(lp110
S'amd64'
p111
aS'i386'
p112
asS'featuresets'
p113
(lp114
S'none'
p115
asS'compiler'
p116
S'gcc-4.9'
p117
ss(S'relations'
p118
tp119
(dp120
S'gcc-4.9'
p121
S'gcc-4.9'
p122
sS'initramfs-fallback'
p123
S'linux-initramfs-tool'
p124
sS'lilo'
p125
S'lilo (>= 22.8-8.2~)'
p126
sS'elilo'
p127
S'elilo (>= 3.12-3.1~)'
p128
sS'gcc-5'
p129
S'gcc-5'
p130
sS'initramfs-tools'
p131
S'initramfs-tools (>= 0.110~)'
p132
sstRp133
.