ccopy_reg
_reconstructor
p1
(cdebian_linux.config
ConfigCore
p2
c__builtin__
dict
p3
(dp4
(S'description'
S'i386'
p5
NS'desktop-686'
tp6
(dp7
S'hardware'
p8
S'modern PCs'
p9
sS'hardware-long'
p10
S'PCs with Intel Pentium Pro/II/III/4/4M/D/M, Xeon, Celeron, Core or Atom; AMD Geode LX/NX, Athlon (K7), Duron, Opteron, Sempron, Turion or Phenom; Transmeta Efficeon; VIA C3 "Nehemiah" or C7 processors'
p11
ss(S'image'
p12
S'amd64'
p13
tp14
(dp15
S'suggests'
p16
S'crda'
p17
sS'configs'
p18
(lp19
S'kernelarch-x86/config'
p20
asS'bootloaders'
p21
(lp22
S'grub-pc'
p23
aS'extlinux'
p24
aS'grub-efi-amd64'
p25
ass(S'base'
p26
g13
S'none'
p27
tp28
(dp29
S'implicit-flavour'
p30
I01
sS'flavours'
p31
(lp32
S'desktop-amd64'
p33
ass(S'base'
p34
g13
tp35
(dp36
S'kernel-arch'
p37
S'x86'
p38
sS'featuresets'
p39
(lp40
g27
ass(S'image'
p41
tp42
(dp43
S'initramfs-generators'
p44
(lp45
S'initramfs-tools'
p46
aS'initramfs-fallback'
p47
asS'type'
p48
S'plain'
p49
ss(S'build'
g13
NS'desktop-amd64'
tp50
(dp51
S'debug-info'
p52
I00
ss(S'version'
p53
tp54
(dp55
S'abiname'
p56
S'3.19-3.semplice.1'
p57
sS'source'
p58
V3.19.3-2
p59
ss(S'base'
g5
tp60
(dp61
S'kernel-arch'
p62
S'x86'
p63
sg39
(lp64
g27
ass(S'image'
g13
NS'desktop-amd64'
tp65
(dp66
S'configs'
p67
(lp68
S'kernelarch-x86/config-arch-64'
p69
ass(S'description'
g13
NS'desktop-amd64'
tp70
(dp71
S'hardware'
p72
S'64-bit PCs'
p73
sS'hardware-long'
p74
S'PCs with AMD64 or Intel 64 processors'
p75
ss(S'abi'
p76
tp77
(dp78
S'abiname'
p79
S'3.semplice.1'
p80
ss(S'image'
g5
tp81
(dp82
S'suggests'
p83
S'crda'
p84
sS'configs'
p85
(lp86
S'kernelarch-x86/config'
p87
asS'bootloaders'
p88
(lp89
S'grub-pc'
p90
aS'extlinux'
p91
ass(S'build'
g5
NS'desktop-686'
tp92
(dp93
S'debug-info'
p94
I00
ss(g26
g5
g27
tp95
(dp96
g30
I01
sg31
(lp97
S'desktop-686'
p98
ass(S'image'
g5
NS'desktop-686'
tp99
(dp100
S'configs'
p101
(lp102
S'kernelarch-x86/config-arch-32'
p103
asS'recommends'
p104
S'libc6-i686'
p105
ss(S'base'
p106
tp107
(dp108
S'arches'
p109
(lp110
S'amd64'
p111
aS'i386'
p112
asS'featuresets'
p113
(lp114
S'none'
p115
asS'compiler'
p116
S'gcc-4.9'
p117
ss(S'relations'
p118
tp119
(dp120
S'initramfs-fallback'
p121
S'linux-initramfs-tool'
p122
sS'gcc-4.9'
p123
S'gcc-4.9'
p124
sS'initramfs-tools'
p125
S'initramfs-tools (>= 0.110~)'
p126
sS'elilo'
p127
S'elilo (>= 3.12-3.1~)'
p128
sS'lilo'
p129
S'lilo (>= 22.8-8.2~)'
p130
sstRp131
.