ccopy_reg
_reconstructor
p1
(cdebian_linux.config
ConfigCore
p2
c__builtin__
dict
p3
(dp4
(S'build'
S'amd64'
p5
NS'desktop-amd64'
tp6
(dp7
S'debug-info'
p8
I00
ss(S'image'
p9
g5
tp10
(dp11
S'suggests'
p12
S'crda'
p13
sS'configs'
p14
(lp15
S'kernelarch-x86/config'
p16
asS'bootloaders'
p17
(lp18
S'grub-pc'
p19
aS'extlinux'
p20
aS'grub-efi-amd64'
p21
ass(S'image'
g5
NS'desktop-amd64'
tp22
(dp23
S'configs'
p24
(lp25
S'kernelarch-x86/config-arch-64'
p26
ass(S'image'
S'i386'
p27
NS'desktop-686'
tp28
(dp29
S'configs'
p30
(lp31
S'kernelarch-x86/config-arch-32'
p32
asS'recommends'
p33
S'libc6-i686'
p34
ss(S'base'
p35
g5
S'none'
p36
tp37
(dp38
S'implicit-flavour'
p39
I01
sS'flavours'
p40
(lp41
S'desktop-amd64'
p42
ass(S'base'
p43
g5
tp44
(dp45
S'kernel-arch'
p46
S'x86'
p47
sS'featuresets'
p48
(lp49
g36
ass(S'description'
g5
NS'desktop-amd64'
tp50
(dp51
S'hardware'
p52
S'64-bit PCs'
p53
sS'hardware-long'
p54
S'PCs with AMD64 or Intel 64 processors'
p55
ss(S'build'
g27
NS'desktop-686'
tp56
(dp57
S'debug-info'
p58
I00
ss(S'version'
p59
tp60
(dp61
S'abiname'
p62
S'4.1-2.semplice.1'
p63
sS'source'
p64
V4.1.2-2~jethro0
p65
ss(S'base'
g27
tp66
(dp67
S'kernel-arch'
p68
S'x86'
p69
sg48
(lp70
g36
ass(S'image'
p71
tp72
(dp73
S'initramfs-generators'
p74
(lp75
S'initramfs-tools'
p76
aS'initramfs-fallback'
p77
asS'type'
p78
S'plain'
p79
ss(S'description'
g27
NS'desktop-686'
tp80
(dp81
S'hardware'
p82
S'modern PCs'
p83
sS'hardware-long'
p84
S'PCs with Intel Pentium Pro/II/III/4/4M/D/M, Xeon, Celeron, Core or Atom; AMD Geode LX/NX, Athlon (K7), Duron, Opteron, Sempron, Turion or Phenom; Transmeta Efficeon; VIA C3 "Nehemiah" or C7 processors'
p85
ss(S'abi'
p86
tp87
(dp88
S'abiname'
p89
S'2.semplice.1'
p90
ss(S'image'
g27
tp91
(dp92
S'suggests'
p93
S'crda'
p94
sS'configs'
p95
(lp96
S'kernelarch-x86/config'
p97
asS'bootloaders'
p98
(lp99
S'grub-pc'
p100
aS'extlinux'
p101
ass(g35
g27
g36
tp102
(dp103
g39
I01
sg40
(lp104
S'desktop-686'
p105
ass(S'base'
p106
tp107
(dp108
S'arches'
p109
(lp110
S'amd64'
p111
aS'i386'
p112
asS'featuresets'
p113
(lp114
S'none'
p115
asS'compiler'
p116
S'gcc-4.9'
p117
ss(S'relations'
p118
tp119
(dp120
S'gcc-4.9'
p121
S'gcc-4.9'
p122
sS'initramfs-fallback'
p123
S'linux-initramfs-tool'
p124
sS'lilo'
p125
S'lilo (>= 22.8-8.2~)'
p126
sS'elilo'
p127
S'elilo (>= 3.12-3.1~)'
p128
sS'gcc-5'
p129
S'gcc-5'
p130
sS'initramfs-tools'
p131
S'initramfs-tools (>= 0.110~)'
p132
sstRp133
.