ccopy_reg
_reconstructor
p1
(cdebian_linux.config
ConfigCore
p2
c__builtin__
dict
p3
(dp4
(S'image'
p5
S'amd64'
p6
tp7
(dp8
S'suggests'
p9
S'crda'
p10
sS'configs'
p11
(lp12
S'kernelarch-x86/config'
p13
asS'bootloaders'
p14
(lp15
S'grub-pc'
p16
aS'extlinux'
p17
aS'grub-efi-amd64'
p18
ass(S'base'
p19
g6
S'none'
p20
tp21
(dp22
S'implicit-flavour'
p23
I01
sS'flavours'
p24
(lp25
S'desktop-amd64'
p26
ass(S'image'
S'i386'
p27
NS'desktop-686'
tp28
(dp29
S'configs'
p30
(lp31
S'kernelarch-x86/config-arch-32'
p32
asS'recommends'
p33
S'libc6-i686'
p34
ss(S'base'
p35
g6
tp36
(dp37
S'kernel-arch'
p38
S'x86'
p39
sS'featuresets'
p40
(lp41
g20
ass(S'image'
p42
tp43
(dp44
S'initramfs-generators'
p45
(lp46
S'initramfs-tools'
p47
aS'initramfs-fallback'
p48
asS'type'
p49
S'plain'
p50
ss(S'description'
g6
NS'desktop-amd64'
tp51
(dp52
S'hardware'
p53
S'64-bit PCs'
p54
sS'hardware-long'
p55
S'PCs with AMD64 or Intel 64 processors'
p56
ss(S'build'
g27
NS'desktop-686'
tp57
(dp58
S'debug-info'
p59
I00
ss(S'version'
p60
tp61
(dp62
S'abiname'
p63
S'4.1-34.semplice.0'
p64
sS'source'
p65
V4.1.34-1
p66
ss(S'description'
g27
NS'desktop-686'
tp67
(dp68
S'hardware'
p69
S'modern PCs'
p70
sS'hardware-long'
p71
S'PCs with Intel Pentium Pro/II/III/4/4M/D/M, Xeon, Celeron, Core or Atom; AMD Geode LX/NX, Athlon (K7), Duron, Opteron, Sempron, Turion or Phenom; Transmeta Efficeon; VIA C3 "Nehemiah" or C7 processors'
p72
ss(S'base'
g27
tp73
(dp74
S'kernel-arch'
p75
S'x86'
p76
sg40
(lp77
g20
ass(S'abi'
p78
tp79
(dp80
S'abiname'
p81
S'34.semplice.0'
p82
ss(S'image'
g27
tp83
(dp84
S'suggests'
p85
S'crda'
p86
sS'configs'
p87
(lp88
S'kernelarch-x86/config'
p89
asS'bootloaders'
p90
(lp91
S'grub-pc'
p92
aS'extlinux'
p93
ass(g19
g27
g20
tp94
(dp95
g23
I01
sg24
(lp96
S'desktop-686'
p97
ass(S'image'
g6
NS'desktop-amd64'
tp98
(dp99
S'configs'
p100
(lp101
S'kernelarch-x86/config-arch-64'
p102
ass(S'base'
p103
tp104
(dp105
S'arches'
p106
(lp107
S'amd64'
p108
aS'i386'
p109
asS'featuresets'
p110
(lp111
S'none'
p112
asS'compiler'
p113
S'gcc-6'
p114
ss(S'relations'
p115
tp116
(dp117
S'gcc-4.9'
p118
S'gcc-4.9'
p119
sS'initramfs-fallback'
p120
S'linux-initramfs-tool'
p121
sS'lilo'
p122
S'lilo (>= 22.8-8.2~)'
p123
sS'elilo'
p124
S'elilo (>= 3.12-3.1~)'
p125
sS'gcc-6'
p126
S'gcc-6'
p127
sS'gcc-5'
p128
S'gcc-5'
p129
sS'initramfs-tools'
p130
S'initramfs-tools (>= 0.110~)'
p131
ss(S'build'
g6
NS'desktop-amd64'
tp132
(dp133
S'debug-info'
p134
I00
sstRp135
.